target datalayout = "e-m:e-p270:32:32-p271:32:32-p272:64:64-i64:64-i128:128-f80:128-n8:16:32:64-S128"
target triple = "x86_64-pc-linux-gnu"

%"struct.llvm::Align" = type { i8 }
%"struct.llvm::DataLayout::PrimitiveSpec" = type <{ i32, %"struct.llvm::Align", %"struct.llvm::Align", [2 x i8] }>
%"class.std::__cxx11::basic_string" = type { %"struct.std::__cxx11::basic_string<char>::_Alloc_hider", i64, %union.anon }
%"struct.std::__cxx11::basic_string<char>::_Alloc_hider" = type { ptr }
%union.anon = type { i64, [8 x i8] }
%"class.llvm::DataLayout" = type { i8, i32, i32, i32, %"struct.llvm::MaybeAlign", %"struct.llvm::MaybeAlign", i32, i32, %"class.llvm::SmallVector", %"class.llvm::SmallVector.1", %"class.llvm::SmallVector.7", %"class.llvm::SmallVector.9", %"class.llvm::SmallVector.11", %"class.std::__cxx11::basic_string", %"struct.llvm::Align", %"struct.llvm::Align", ptr, %"class.llvm::SmallVector.16" }
%"struct.llvm::MaybeAlign" = type { %"class.std::optional" }
%"class.std::optional" = type { %"struct.std::_Optional_base" }
%"struct.std::_Optional_base" = type { %"struct.std::_Optional_payload" }
%"struct.std::_Optional_payload" = type { %"struct.std::_Optional_payload_base" }
%"struct.std::_Optional_payload_base" = type { %"union.std::_Optional_payload_base<llvm::Align>::_Storage", i8 }
%"union.std::_Optional_payload_base<llvm::Align>::_Storage" = type { %"struct.std::_Optional_payload_base<llvm::Align>::_Empty_byte" }
%"struct.std::_Optional_payload_base<llvm::Align>::_Empty_byte" = type { i8 }
%"class.llvm::SmallVector" = type { %"class.llvm::SmallVectorImpl", %"struct.llvm::SmallVectorStorage" }
%"class.llvm::SmallVectorImpl" = type { %"class.llvm::SmallVectorTemplateBase" }
%"class.llvm::SmallVectorTemplateBase" = type { %"class.llvm::SmallVectorTemplateCommon" }
%"class.llvm::SmallVectorTemplateCommon" = type { %"class.llvm::SmallVectorBase" }
%"class.llvm::SmallVectorBase" = type { ptr, i64, i64 }
%"struct.llvm::SmallVectorStorage" = type { [8 x i8] }
%"class.llvm::SmallVector.1" = type { %"class.llvm::SmallVectorImpl.2", %"struct.llvm::SmallVectorStorage.6" }
%"class.llvm::SmallVectorImpl.2" = type { %"class.llvm::SmallVectorTemplateBase.3" }
%"class.llvm::SmallVectorTemplateBase.3" = type { %"class.llvm::SmallVectorTemplateCommon.4" }
%"class.llvm::SmallVectorTemplateCommon.4" = type { %"class.llvm::SmallVectorBase.5" }
%"class.llvm::SmallVectorBase.5" = type { ptr, i32, i32 }
%"struct.llvm::SmallVectorStorage.6" = type { [48 x i8] }
%"class.llvm::SmallVector.7" = type { %"class.llvm::SmallVectorImpl.2", %"struct.llvm::SmallVectorStorage.8" }
%"struct.llvm::SmallVectorStorage.8" = type { [32 x i8] }
%"class.llvm::SmallVector.9" = type { %"class.llvm::SmallVectorImpl.2", %"struct.llvm::SmallVectorStorage.10" }
%"struct.llvm::SmallVectorStorage.10" = type { [80 x i8] }
%"class.llvm::SmallVector.11" = type { %"class.llvm::SmallVectorImpl.12", %"struct.llvm::SmallVectorStorage.15" }
%"class.llvm::SmallVectorImpl.12" = type { %"class.llvm::SmallVectorTemplateBase.13" }
%"class.llvm::SmallVectorTemplateBase.13" = type { %"class.llvm::SmallVectorTemplateCommon.14" }
%"class.llvm::SmallVectorTemplateCommon.14" = type { %"class.llvm::SmallVectorBase.5" }
%"struct.llvm::SmallVectorStorage.15" = type { [128 x i8] }
%"class.llvm::SmallVector.16" = type { %"class.llvm::SmallVectorImpl.17", %"struct.llvm::SmallVectorStorage.20" }
%"class.llvm::SmallVectorImpl.17" = type { %"class.llvm::SmallVectorTemplateBase.18" }
%"class.llvm::SmallVectorTemplateBase.18" = type { %"class.llvm::SmallVectorTemplateCommon.19" }
%"class.llvm::SmallVectorTemplateCommon.19" = type { %"class.llvm::SmallVectorBase.5" }
%"struct.llvm::SmallVectorStorage.20" = type { [32 x i8] }
%"struct.__gnu_cxx::__ops::_Iter_comp_val" = type { i8 }

; Function Attrs: mustprogress nounwind uwtable
define internal noundef zeroext i1 @_ZNK12_GLOBAL__N_121LessPrimitiveBitWidthclERKN4llvm10DataLayout13PrimitiveSpecEj(ptr noundef nonnull align 1 dereferenceable(1) %0, ptr noundef nonnull align 4 dereferenceable(6) %1, i32 noundef %2) #0 align 2 {
  %4 = alloca ptr, align 8
  %5 = alloca ptr, align 8
  %6 = alloca i32, align 4
  store ptr %0, ptr %4, align 8
  store ptr %1, ptr %5, align 8
  store i32 %2, ptr %6, align 4
  %7 = load ptr, ptr %5, align 8
  %8 = getelementptr inbounds nuw %"struct.llvm::DataLayout::PrimitiveSpec", ptr %7, i32 0, i32 0
  %9 = load i32, ptr %8, align 4
  %10 = load i32, ptr %6, align 4
  %11 = icmp ult i32 %9, %10
  ret i1 %11
}

; Function Attrs: mustprogress nounwind uwtable
define linkonce_odr void @_ZSt9__advanceIPKN4llvm10DataLayout13PrimitiveSpecElEvRT_T0_St26random_access_iterator_tag(ptr noundef nonnull align 8 dereferenceable(8) %0, i64 noundef %1) #0 comdat {
  %3 = alloca ptr, align 8
  %4 = alloca i64, align 8
  store ptr %0, ptr %3, align 8
  store i64 %1, ptr %4, align 8
  %5 = load i64, ptr %4, align 8
  %6 = call i1 @llvm.is.constant.i64(i64 %5)
  br i1 %6, label %7, label %14

7:                                                ; preds = %2
  %8 = load i64, ptr %4, align 8
  %9 = icmp eq i64 %8, 1
  br i1 %9, label %10, label %14

10:                                               ; preds = %7
  %11 = load ptr, ptr %3, align 8
  %12 = load ptr, ptr %11, align 8
  %13 = getelementptr inbounds %"struct.llvm::DataLayout::PrimitiveSpec", ptr %12, i32 1
  store ptr %13, ptr %11, align 8
  br label %30

14:                                               ; preds = %7, %2
  %15 = load i64, ptr %4, align 8
  %16 = call i1 @llvm.is.constant.i64(i64 %15)
  br i1 %16, label %17, label %24

17:                                               ; preds = %14
  %18 = load i64, ptr %4, align 8
  %19 = icmp eq i64 %18, -1
  br i1 %19, label %20, label %24

20:                                               ; preds = %17
  %21 = load ptr, ptr %3, align 8
  %22 = load ptr, ptr %21, align 8
  %23 = getelementptr inbounds %"struct.llvm::DataLayout::PrimitiveSpec", ptr %22, i32 -1
  store ptr %23, ptr %21, align 8
  br label %29

24:                                               ; preds = %17, %14
  %25 = load i64, ptr %4, align 8
  %26 = load ptr, ptr %3, align 8
  %27 = load ptr, ptr %26, align 8
  %28 = getelementptr inbounds %"struct.llvm::DataLayout::PrimitiveSpec", ptr %27, i64 %25
  store ptr %28, ptr %26, align 8
  br label %29

29:                                               ; preds = %24, %20
  br label %30

30:                                               ; preds = %29, %10
  ret void
}

; Function Attrs: mustprogress nounwind uwtable
define linkonce_odr noundef i64 @_ZSt10__distanceIPKN4llvm10DataLayout13PrimitiveSpecEENSt15iterator_traitsIT_E15difference_typeES6_S6_St26random_access_iterator_tag(ptr noundef %0, ptr noundef %1) #0 comdat {
  %3 = alloca ptr, align 8
  %4 = alloca ptr, align 8
  store ptr %0, ptr %3, align 8
  store ptr %1, ptr %4, align 8
  %5 = load ptr, ptr %4, align 8
  %6 = load ptr, ptr %3, align 8
  %7 = ptrtoint ptr %5 to i64
  %8 = ptrtoint ptr %6 to i64
  %9 = sub i64 %7, %8
  %10 = sdiv exact i64 %9, 8
  ret i64 %10
}

; Function Attrs: mustprogress nounwind uwtable
define linkonce_odr void @_ZSt19__iterator_categoryIPKN4llvm10DataLayout13PrimitiveSpecEENSt15iterator_traitsIT_E17iterator_categoryERKS6_(ptr noundef nonnull align 8 dereferenceable(8) %0) #0 comdat {
  %2 = alloca ptr, align 8
  store ptr %0, ptr %2, align 8
  ret void
}

; Function Attrs: mustprogress nounwind uwtable
define internal noundef zeroext i1 @_ZN9__gnu_cxx5__ops14_Iter_comp_valIN12_GLOBAL__N_121LessPrimitiveBitWidthEEclIPKN4llvm10DataLayout13PrimitiveSpecEKjEEbT_RT0_(ptr noundef nonnull align 1 dereferenceable(1) %0, ptr noundef %1, ptr noundef nonnull align 4 dereferenceable(4) %2) #0 align 2 {
  %4 = alloca ptr, align 8
  %5 = alloca ptr, align 8
  %6 = alloca ptr, align 8
  store ptr %0, ptr %4, align 8
  store ptr %1, ptr %5, align 8
  store ptr %2, ptr %6, align 8
  %7 = load ptr, ptr %4, align 8
  %8 = load ptr, ptr %5, align 8
  %9 = load ptr, ptr %6, align 8
  %10 = load i32, ptr %9, align 4
  %11 = call noundef zeroext i1 @_ZNK12_GLOBAL__N_121LessPrimitiveBitWidthclERKN4llvm10DataLayout13PrimitiveSpecEj(ptr noundef nonnull align 1 dereferenceable(1) %7, ptr noundef nonnull align 4 dereferenceable(6) %8, i32 noundef %10)
  ret i1 %11
}

; Function Attrs: mustprogress nounwind uwtable
define linkonce_odr void @_ZSt7advanceIPKN4llvm10DataLayout13PrimitiveSpecElEvRT_T0_(ptr noundef nonnull align 8 dereferenceable(8) %0, i64 noundef %1) #0 comdat {
  %3 = alloca ptr, align 8
  %4 = alloca i64, align 8
  %5 = alloca i64, align 8
  store ptr %0, ptr %3, align 8
  store i64 %1, ptr %4, align 8
  %6 = load i64, ptr %4, align 8
  store i64 %6, ptr %5, align 8
  %7 = load ptr, ptr %3, align 8
  %8 = load i64, ptr %5, align 8
  %9 = load ptr, ptr %3, align 8
  call void @_ZSt19__iterator_categoryIPKN4llvm10DataLayout13PrimitiveSpecEENSt15iterator_traitsIT_E17iterator_categoryERKS6_(ptr noundef nonnull align 8 dereferenceable(8) %9)
  call void @_ZSt9__advanceIPKN4llvm10DataLayout13PrimitiveSpecElEvRT_T0_St26random_access_iterator_tag(ptr noundef nonnull align 8 dereferenceable(8) %7, i64 noundef %8)
  ret void
}

; Function Attrs: mustprogress nounwind uwtable
define linkonce_odr noundef i64 @_ZSt8distanceIPKN4llvm10DataLayout13PrimitiveSpecEENSt15iterator_traitsIT_E15difference_typeES6_S6_(ptr noundef %0, ptr noundef %1) #0 comdat {
  %3 = alloca ptr, align 8
  %4 = alloca ptr, align 8
  store ptr %0, ptr %3, align 8
  store ptr %1, ptr %4, align 8
  %5 = load ptr, ptr %3, align 8
  %6 = load ptr, ptr %4, align 8
  call void @_ZSt19__iterator_categoryIPKN4llvm10DataLayout13PrimitiveSpecEENSt15iterator_traitsIT_E17iterator_categoryERKS6_(ptr noundef nonnull align 8 dereferenceable(8) %3)
  %7 = call noundef i64 @_ZSt10__distanceIPKN4llvm10DataLayout13PrimitiveSpecEENSt15iterator_traitsIT_E15difference_typeES6_S6_St26random_access_iterator_tag(ptr noundef %5, ptr noundef %6)
  ret i64 %7
}

; Function Attrs: mustprogress nounwind uwtable
define internal void @_ZN9__gnu_cxx5__ops14_Iter_comp_valIN12_GLOBAL__N_121LessPrimitiveBitWidthEEC2ES3_(ptr noundef nonnull align 1 dereferenceable(1) %0) unnamed_addr #0 align 2 {
  %2 = alloca ptr, align 8
  store ptr %0, ptr %2, align 8
  ret void
}

; Function Attrs: mustprogress nounwind uwtable
define linkonce_odr noundef ptr @_ZSt3endIN4llvm11SmallVectorINS0_10DataLayout13PrimitiveSpecELj6EEEEDTcldtfp_3endEERKT_(ptr noundef nonnull align 8 dereferenceable(64) %0) #0 comdat {
  %2 = alloca ptr, align 8
  store ptr %0, ptr %2, align 8
  %3 = load ptr, ptr %2, align 8
  %4 = call noundef ptr @_ZNK4llvm25SmallVectorTemplateCommonINS_10DataLayout13PrimitiveSpecEvE3endEv(ptr noundef nonnull align 8 dereferenceable(16) %3)
  ret ptr %4
}

; Function Attrs: mustprogress nounwind uwtable
define linkonce_odr noundef ptr @_ZSt5beginIN4llvm11SmallVectorINS0_10DataLayout13PrimitiveSpecELj6EEEEDTcldtfp_5beginEERKT_(ptr noundef nonnull align 8 dereferenceable(64) %0) #0 comdat {
  %2 = alloca ptr, align 8
  store ptr %0, ptr %2, align 8
  %3 = load ptr, ptr %2, align 8
  %4 = call noundef ptr @_ZNK4llvm25SmallVectorTemplateCommonINS_10DataLayout13PrimitiveSpecEvE5beginEv(ptr noundef nonnull align 8 dereferenceable(16) %3)
  ret ptr %4
}

; Function Attrs: mustprogress nounwind uwtable
define internal noundef ptr @_ZSt13__lower_boundIPKN4llvm10DataLayout13PrimitiveSpecEjN9__gnu_cxx5__ops14_Iter_comp_valIN12_GLOBAL__N_121LessPrimitiveBitWidthEEEET_SB_SB_RKT0_T1_(ptr noundef %0, ptr noundef %1, ptr noundef nonnull align 4 dereferenceable(4) %2) #0 {
  %4 = alloca %"struct.__gnu_cxx::__ops::_Iter_comp_val", align 1
  %5 = alloca ptr, align 8
  %6 = alloca ptr, align 8
  %7 = alloca ptr, align 8
  %8 = alloca i64, align 8
  %9 = alloca i64, align 8
  %10 = alloca ptr, align 8
  store ptr %0, ptr %5, align 8
  store ptr %1, ptr %6, align 8
  store ptr %2, ptr %7, align 8
  %11 = load ptr, ptr %5, align 8
  %12 = load ptr, ptr %6, align 8
  %13 = call noundef i64 @_ZSt8distanceIPKN4llvm10DataLayout13PrimitiveSpecEENSt15iterator_traitsIT_E15difference_typeES6_S6_(ptr noundef %11, ptr noundef %12)
  store i64 %13, ptr %8, align 8
  br label %14

14:                                               ; preds = %35, %3
  %15 = load i64, ptr %8, align 8
  %16 = icmp sgt i64 %15, 0
  br i1 %16, label %17, label %36

17:                                               ; preds = %14
  %18 = load i64, ptr %8, align 8
  %19 = ashr i64 %18, 1
  store i64 %19, ptr %9, align 8
  %20 = load ptr, ptr %5, align 8
  store ptr %20, ptr %10, align 8
  %21 = load i64, ptr %9, align 8
  call void @_ZSt7advanceIPKN4llvm10DataLayout13PrimitiveSpecElEvRT_T0_(ptr noundef nonnull align 8 dereferenceable(8) %10, i64 noundef %21)
  %22 = load ptr, ptr %10, align 8
  %23 = load ptr, ptr %7, align 8
  %24 = call noundef zeroext i1 @_ZN9__gnu_cxx5__ops14_Iter_comp_valIN12_GLOBAL__N_121LessPrimitiveBitWidthEEclIPKN4llvm10DataLayout13PrimitiveSpecEKjEEbT_RT0_(ptr noundef nonnull align 1 dereferenceable(1) %4, ptr noundef %22, ptr noundef nonnull align 4 dereferenceable(4) %23)
  br i1 %24, label %25, label %33

25:                                               ; preds = %17
  %26 = load ptr, ptr %10, align 8
  store ptr %26, ptr %5, align 8
  %27 = load ptr, ptr %5, align 8
  %28 = getelementptr inbounds %"struct.llvm::DataLayout::PrimitiveSpec", ptr %27, i32 1
  store ptr %28, ptr %5, align 8
  %29 = load i64, ptr %8, align 8
  %30 = load i64, ptr %9, align 8
  %31 = sub nsw i64 %29, %30
  %32 = sub nsw i64 %31, 1
  store i64 %32, ptr %8, align 8
  br label %35

33:                                               ; preds = %17
  %34 = load i64, ptr %9, align 8
  store i64 %34, ptr %8, align 8
  br label %35

35:                                               ; preds = %33, %25
  br label %14, !llvm.loop !14

36:                                               ; preds = %14
  %37 = load ptr, ptr %5, align 8
  ret ptr %37
}

; Function Attrs: mustprogress nounwind uwtable
define internal void @_ZN9__gnu_cxx5__ops15__iter_comp_valIN12_GLOBAL__N_121LessPrimitiveBitWidthEEENS0_14_Iter_comp_valIT_EES5_() #0 {
  %1 = alloca %"struct.__gnu_cxx::__ops::_Iter_comp_val", align 1
  call void @_ZN9__gnu_cxx5__ops14_Iter_comp_valIN12_GLOBAL__N_121LessPrimitiveBitWidthEEC2ES3_(ptr noundef nonnull align 1 dereferenceable(1) %1)
  ret void
}

; Function Attrs: mustprogress nounwind uwtable
define linkonce_odr hidden noundef ptr @_ZN4llvm10adl_detail8end_implIRKNS_11SmallVectorINS_10DataLayout13PrimitiveSpecELj6EEEEEDTcl3endclsr3stdE7forwardIT_Efp_EEEOS8_(ptr noundef nonnull align 8 dereferenceable(64) %0) #0 comdat {
  %2 = alloca ptr, align 8
  store ptr %0, ptr %2, align 8
  %3 = load ptr, ptr %2, align 8
  %4 = call noundef ptr @_ZSt3endIN4llvm11SmallVectorINS0_10DataLayout13PrimitiveSpecELj6EEEEDTcldtfp_3endEERKT_(ptr noundef nonnull align 8 dereferenceable(64) %3)
  ret ptr %4
}

; Function Attrs: mustprogress nounwind uwtable
define linkonce_odr hidden noundef ptr @_ZN4llvm10adl_detail10begin_implIRKNS_11SmallVectorINS_10DataLayout13PrimitiveSpecELj6EEEEEDTcl5beginclsr3stdE7forwardIT_Efp_EEEOS8_(ptr noundef nonnull align 8 dereferenceable(64) %0) #0 comdat {
  %2 = alloca ptr, align 8
  store ptr %0, ptr %2, align 8
  %3 = load ptr, ptr %2, align 8
  %4 = call noundef ptr @_ZSt5beginIN4llvm11SmallVectorINS0_10DataLayout13PrimitiveSpecELj6EEEEDTcldtfp_5beginEERKT_(ptr noundef nonnull align 8 dereferenceable(64) %3)
  ret ptr %4
}

; Function Attrs: mustprogress nounwind uwtable
define linkonce_odr hidden noundef ptr @_ZNK4llvm25SmallVectorTemplateCommonINS_10DataLayout13PrimitiveSpecEvE5beginEv(ptr noundef nonnull align 8 dereferenceable(16) %0) #0 comdat align 2 {
  %2 = alloca ptr, align 8
  store ptr %0, ptr %2, align 8
  %3 = load ptr, ptr %2, align 8
  %4 = getelementptr inbounds nuw %"class.llvm::SmallVectorBase.5", ptr %3, i32 0, i32 0
  %5 = load ptr, ptr %4, align 8
  ret ptr %5
}

; Function Attrs: mustprogress nounwind uwtable
define internal noundef ptr @_ZSt11lower_boundIPKN4llvm10DataLayout13PrimitiveSpecEjN12_GLOBAL__N_121LessPrimitiveBitWidthEET_S7_S7_RKT0_T1_(ptr noundef %0, ptr noundef %1, ptr noundef nonnull align 4 dereferenceable(4) %2) #0 {
  %4 = alloca ptr, align 8
  %5 = alloca ptr, align 8
  %6 = alloca ptr, align 8
  store ptr %0, ptr %4, align 8
  store ptr %1, ptr %5, align 8
  store ptr %2, ptr %6, align 8
  %7 = load ptr, ptr %4, align 8
  %8 = load ptr, ptr %5, align 8
  %9 = load ptr, ptr %6, align 8
  call void @_ZN9__gnu_cxx5__ops15__iter_comp_valIN12_GLOBAL__N_121LessPrimitiveBitWidthEEENS0_14_Iter_comp_valIT_EES5_()
  %10 = call noundef ptr @_ZSt13__lower_boundIPKN4llvm10DataLayout13PrimitiveSpecEjN9__gnu_cxx5__ops14_Iter_comp_valIN12_GLOBAL__N_121LessPrimitiveBitWidthEEEET_SB_SB_RKT0_T1_(ptr noundef %7, ptr noundef %8, ptr noundef nonnull align 4 dereferenceable(4) %9)
  ret ptr %10
}

; Function Attrs: mustprogress nounwind uwtable
define linkonce_odr hidden noundef ptr @_ZN4llvm7adl_endIRKNS_11SmallVectorINS_10DataLayout13PrimitiveSpecELj6EEEEEDTclsr10adl_detailE8end_implclsr3stdE7forwardIT_Efp_EEEOS7_(ptr noundef nonnull align 8 dereferenceable(64) %0) #0 comdat {
  %2 = alloca ptr, align 8
  store ptr %0, ptr %2, align 8
  %3 = load ptr, ptr %2, align 8
  %4 = call noundef ptr @_ZN4llvm10adl_detail8end_implIRKNS_11SmallVectorINS_10DataLayout13PrimitiveSpecELj6EEEEEDTcl3endclsr3stdE7forwardIT_Efp_EEEOS8_(ptr noundef nonnull align 8 dereferenceable(64) %3)
  ret ptr %4
}

; Function Attrs: mustprogress nounwind uwtable
define linkonce_odr hidden noundef ptr @_ZN4llvm9adl_beginIRKNS_11SmallVectorINS_10DataLayout13PrimitiveSpecELj6EEEEEDTclsr10adl_detailE10begin_implclsr3stdE7forwardIT_Efp_EEEOS7_(ptr noundef nonnull align 8 dereferenceable(64) %0) #0 comdat {
  %2 = alloca ptr, align 8
  store ptr %0, ptr %2, align 8
  %3 = load ptr, ptr %2, align 8
  %4 = call noundef ptr @_ZN4llvm10adl_detail10begin_implIRKNS_11SmallVectorINS_10DataLayout13PrimitiveSpecELj6EEEEEDTcl5beginclsr3stdE7forwardIT_Efp_EEEOS8_(ptr noundef nonnull align 8 dereferenceable(64) %3)
  ret ptr %4
}

; Function Attrs: mustprogress nounwind uwtable
define linkonce_odr hidden noundef ptr @_ZNK4llvm25SmallVectorTemplateCommonINS_10DataLayout13PrimitiveSpecEvE3endEv(ptr noundef nonnull align 8 dereferenceable(16) %0) #0 comdat align 2 {
  %2 = alloca ptr, align 8
  store ptr %0, ptr %2, align 8
  %3 = load ptr, ptr %2, align 8
  %4 = call noundef ptr @_ZNK4llvm25SmallVectorTemplateCommonINS_10DataLayout13PrimitiveSpecEvE5beginEv(ptr noundef nonnull align 8 dereferenceable(16) %3)
  %5 = call noundef i64 @_ZNK4llvm15SmallVectorBaseIjE4sizeEv(ptr noundef nonnull align 8 dereferenceable(16) %3)
  %6 = getelementptr inbounds %"struct.llvm::DataLayout::PrimitiveSpec", ptr %4, i64 %5
  ret ptr %6
}

; Function Attrs: mustprogress nounwind uwtable
define internal noundef ptr @_ZN4llvm11lower_boundIRKNS_11SmallVectorINS_10DataLayout13PrimitiveSpecELj6EEERjN12_GLOBAL__N_121LessPrimitiveBitWidthEEEDaOT_OT0_T1_(ptr noundef nonnull align 8 dereferenceable(64) %0, ptr noundef nonnull align 4 dereferenceable(4) %1) #0 {
  %3 = alloca ptr, align 8
  %4 = alloca ptr, align 8
  store ptr %0, ptr %3, align 8
  store ptr %1, ptr %4, align 8
  %5 = load ptr, ptr %3, align 8
  %6 = call noundef ptr @_ZN4llvm9adl_beginIRKNS_11SmallVectorINS_10DataLayout13PrimitiveSpecELj6EEEEEDTclsr10adl_detailE10begin_implclsr3stdE7forwardIT_Efp_EEEOS7_(ptr noundef nonnull align 8 dereferenceable(64) %5)
  %7 = load ptr, ptr %3, align 8
  %8 = call noundef ptr @_ZN4llvm7adl_endIRKNS_11SmallVectorINS_10DataLayout13PrimitiveSpecELj6EEEEEDTclsr10adl_detailE8end_implclsr3stdE7forwardIT_Efp_EEEOS7_(ptr noundef nonnull align 8 dereferenceable(64) %7)
  %9 = load ptr, ptr %4, align 8
  %10 = call noundef ptr @_ZSt11lower_boundIPKN4llvm10DataLayout13PrimitiveSpecEjN12_GLOBAL__N_121LessPrimitiveBitWidthEET_S7_S7_RKT0_T1_(ptr noundef %6, ptr noundef %8, ptr noundef nonnull align 4 dereferenceable(4) %9)
  ret ptr %10
}

; Function Attrs: mustprogress nounwind uwtable
define dso_local i8 @_ZNK4llvm10DataLayout19getIntegerAlignmentEjb(ptr noundef nonnull align 8 dereferenceable(512) %0, i32 noundef %1, i1 noundef zeroext %2) #0 align 2 {
  %4 = alloca %"struct.llvm::Align", align 1
  %5 = alloca ptr, align 8
  %6 = alloca i32, align 4
  %7 = alloca i8, align 1
  %8 = alloca ptr, align 8
  store ptr %0, ptr %5, align 8
  store i32 %1, ptr %6, align 4
  %9 = zext i1 %2 to i8
  store i8 %9, ptr %7, align 1
  %10 = load ptr, ptr %5, align 8
  %11 = getelementptr inbounds nuw %"class.llvm::DataLayout", ptr %10, i32 0, i32 9
  %12 = call noundef ptr @_ZN4llvm11lower_boundIRKNS_11SmallVectorINS_10DataLayout13PrimitiveSpecELj6EEERjN12_GLOBAL__N_121LessPrimitiveBitWidthEEEDaOT_OT0_T1_(ptr noundef nonnull align 8 dereferenceable(64) %11, ptr noundef nonnull align 4 dereferenceable(4) %6)
  store ptr %12, ptr %8, align 8
  %13 = load ptr, ptr %8, align 8
  %14 = getelementptr inbounds nuw %"class.llvm::DataLayout", ptr %10, i32 0, i32 9
  %15 = call noundef ptr @_ZNK4llvm25SmallVectorTemplateCommonINS_10DataLayout13PrimitiveSpecEvE3endEv(ptr noundef nonnull align 8 dereferenceable(16) %14)
  %16 = icmp eq ptr %13, %15
  br i1 %16, label %17, label %20

17:                                               ; preds = %3
  %18 = load ptr, ptr %8, align 8
  %19 = getelementptr inbounds %"struct.llvm::DataLayout::PrimitiveSpec", ptr %18, i32 -1
  store ptr %19, ptr %8, align 8
  br label %20

20:                                               ; preds = %17, %3
  %21 = load i8, ptr %7, align 1
  %22 = trunc i8 %21 to i1
  br i1 %22, label %23, label %26

23:                                               ; preds = %20
  %24 = load ptr, ptr %8, align 8
  %25 = getelementptr inbounds nuw %"struct.llvm::DataLayout::PrimitiveSpec", ptr %24, i32 0, i32 1
  br label %29

26:                                               ; preds = %20
  %27 = load ptr, ptr %8, align 8
  %28 = getelementptr inbounds nuw %"struct.llvm::DataLayout::PrimitiveSpec", ptr %27, i32 0, i32 2
  br label %29

29:                                               ; preds = %26, %23
  %30 = phi ptr [ %25, %23 ], [ %28, %26 ]
  call void @llvm.memcpy.p0.p0.i64(ptr align 1 %4, ptr align 1 %30, i64 1, i1 false)
  %31 = getelementptr inbounds nuw %"struct.llvm::Align", ptr %4, i32 0, i32 0
  %32 = load i8, ptr %31, align 1
  ret i8 %32
}