; Function Attrs: mustprogress nounwind uwtable
define dso_local i8 @_ZNK4llvm10DataLayout19getIntegerAlignmentEjb(ptr noundef nonnull align 8 dereferenceable(512) %0, i32 noundef %1, i1 noundef zeroext %2) local_unnamed_addr #0 align 2 {
  %4 = getelementptr inbounds nuw i8, ptr %0, i64 64
  %5 = load ptr, ptr %4, align 8
  %6 = tail call noundef i64 @_ZNK4llvm15SmallVectorBaseIjE4sizeEv(ptr noundef nonnull align 8 dereferenceable(64) %4) #19
  %7 = icmp sgt i64 %6, 0
  br i1 %7, label %_ZSt7advanceIPKN4llvm10DataLayout13PrimitiveSpecElEvRT_T0_.exit.i.i.i, label %_ZN4llvm11lower_boundIRKNS_11SmallVectorINS_10DataLayout13PrimitiveSpecELj6EEERjN12_GLOBAL__N_121LessPrimitiveBitWidthEEEDaOT_OT0_T1_.exit

_ZSt7advanceIPKN4llvm10DataLayout13PrimitiveSpecElEvRT_T0_.exit.i.i.i: ; preds = %3, %_ZSt7advanceIPKN4llvm10DataLayout13PrimitiveSpecElEvRT_T0_.exit.i.i.i
  %.05.i.i.i = phi ptr [ %.1.i.i.i, %_ZSt7advanceIPKN4llvm10DataLayout13PrimitiveSpecElEvRT_T0_.exit.i.i.i ], [ %5, %3 ]
  %.0114.i.i.i = phi i64 [ %.112.i.i.i, %_ZSt7advanceIPKN4llvm10DataLayout13PrimitiveSpecElEvRT_T0_.exit.i.i.i ], [ %6, %3 ]
  %8 = lshr i64 %.0114.i.i.i, 1
  %9 = getelementptr inbounds nuw %"struct.llvm::DataLayout::PrimitiveSpec", ptr %.05.i.i.i, i64 %8
  %.val.i.i.i = load i32, ptr %9, align 4
  %10 = icmp ult i32 %.val.i.i.i, %1
  %11 = getelementptr inbounds nuw i8, ptr %9, i64 8
  %12 = xor i64 %8, -1
  %13 = add nsw i64 %.0114.i.i.i, %12
  %.112.i.i.i = select i1 %10, i64 %13, i64 %8
  %.1.i.i.i = select i1 %10, ptr %11, ptr %.05.i.i.i
  %14 = icmp sgt i64 %.112.i.i.i, 0
  br i1 %14, label %_ZSt7advanceIPKN4llvm10DataLayout13PrimitiveSpecElEvRT_T0_.exit.i.i.i, label %_ZN4llvm11lower_boundIRKNS_11SmallVectorINS_10DataLayout13PrimitiveSpecELj6EEERjN12_GLOBAL__N_121LessPrimitiveBitWidthEEEDaOT_OT0_T1_.exit, !llvm.loop !260

_ZN4llvm11lower_boundIRKNS_11SmallVectorINS_10DataLayout13PrimitiveSpecELj6EEERjN12_GLOBAL__N_121LessPrimitiveBitWidthEEEDaOT_OT0_T1_.exit: ; preds = %_ZSt7advanceIPKN4llvm10DataLayout13PrimitiveSpecElEvRT_T0_.exit.i.i.i, %3
  %.0.lcssa.i.i.i = phi ptr [ %5, %3 ], [ %.1.i.i.i, %_ZSt7advanceIPKN4llvm10DataLayout13PrimitiveSpecElEvRT_T0_.exit.i.i.i ]
  %15 = load ptr, ptr %4, align 8
  %16 = tail call noundef i64 @_ZNK4llvm15SmallVectorBaseIjE4sizeEv(ptr noundef nonnull align 8 dereferenceable(16) %4) #19
  %17 = getelementptr inbounds %"struct.llvm::DataLayout::PrimitiveSpec", ptr %15, i64 %16
  %18 = icmp eq ptr %.0.lcssa.i.i.i, %17
  %spec.select.idx = select i1 %18, i64 -8, i64 0
  %spec.select = getelementptr inbounds i8, ptr %.0.lcssa.i.i.i, i64 %spec.select.idx
  %.v = select i1 %2, i64 4, i64 5
  %19 = getelementptr inbounds nuw i8, ptr %spec.select, i64 %.v
  %.sroa.0.0.copyload = load i8, ptr %19, align 1
  ret i8 %.sroa.0.0.copyload
}